target datalayout = "e-m:e-p270:32:32-p271:32:32-p272:64:64-i64:64-i128:128-f80:128-n8:16:32:64-S128"
target triple = "x86_64-pc-linux-gnu"

%struct.asn1_string_st = type { i32, i32, ptr, i64 }

@.str = private unnamed_addr constant [31 x i8] c"../openssl/crypto/asn1/a_int.c\00", align 1
@__func__.asn1_string_get_int64 = private unnamed_addr constant [22 x i8] c"asn1_string_get_int64\00", align 1
@__func__.asn1_get_int64 = private unnamed_addr constant [15 x i8] c"asn1_get_int64\00", align 1
@__func__.asn1_get_uint64 = private unnamed_addr constant [16 x i8] c"asn1_get_uint64\00", align 1

; Function Attrs: nounwind uwtable
define internal i32 @asn1_get_uint64(ptr noundef %0, ptr noundef %1, i64 noundef %2) #0 {
  %4 = alloca i32, align 4
  %5 = alloca ptr, align 8
  %6 = alloca ptr, align 8
  %7 = alloca i64, align 8
  %8 = alloca i64, align 8
  %9 = alloca i64, align 8
  %10 = alloca i32, align 4
  store ptr %0, ptr %5, align 8, !tbaa !28
  store ptr %1, ptr %6, align 8, !tbaa !18
  store i64 %2, ptr %7, align 8, !tbaa !19
  call void @llvm.lifetime.start.p0(i64 8, ptr %8) #4
  call void @llvm.lifetime.start.p0(i64 8, ptr %9) #4
  %11 = load i64, ptr %7, align 8, !tbaa !19
  %12 = icmp ugt i64 %11, 8
  br i1 %12, label %13, label %14

13:                                               ; preds = %3
  call void @ERR_new()
  call void @ERR_set_debug(ptr noundef @.str, i32 noundef 219, ptr noundef @__func__.asn1_get_uint64)
  call void (i32, i32, ptr, ...) @ERR_set_error(i32 noundef 13, i32 noundef 223, ptr noundef null)
  store i32 0, ptr %4, align 4
  store i32 1, ptr %10, align 4
  br label %39

14:                                               ; preds = %3
  %15 = load ptr, ptr %6, align 8, !tbaa !18
  %16 = icmp eq ptr %15, null
  br i1 %16, label %17, label %18

17:                                               ; preds = %14
  store i32 0, ptr %4, align 4
  store i32 1, ptr %10, align 4
  br label %39

18:                                               ; preds = %14
  store i64 0, ptr %9, align 8, !tbaa !19
  store i64 0, ptr %8, align 8, !tbaa !19
  br label %19

19:                                               ; preds = %33, %18
  %20 = load i64, ptr %8, align 8, !tbaa !19
  %21 = load i64, ptr %7, align 8, !tbaa !19
  %22 = icmp ult i64 %20, %21
  br i1 %22, label %23, label %36

23:                                               ; preds = %19
  %24 = load i64, ptr %9, align 8, !tbaa !19
  %25 = shl i64 %24, 8
  store i64 %25, ptr %9, align 8, !tbaa !19
  %26 = load ptr, ptr %6, align 8, !tbaa !18
  %27 = load i64, ptr %8, align 8, !tbaa !19
  %28 = getelementptr inbounds nuw i8, ptr %26, i64 %27
  %29 = load i8, ptr %28, align 1, !tbaa !20
  %30 = zext i8 %29 to i64
  %31 = load i64, ptr %9, align 8, !tbaa !19
  %32 = or i64 %31, %30
  store i64 %32, ptr %9, align 8, !tbaa !19
  br label %33

33:                                               ; preds = %23
  %34 = load i64, ptr %8, align 8, !tbaa !19
  %35 = add i64 %34, 1
  store i64 %35, ptr %8, align 8, !tbaa !19
  br label %19, !llvm.loop !32

36:                                               ; preds = %19
  %37 = load i64, ptr %9, align 8, !tbaa !19
  %38 = load ptr, ptr %5, align 8, !tbaa !28
  store i64 %37, ptr %38, align 8, !tbaa !19
  store i32 1, ptr %4, align 4
  store i32 1, ptr %10, align 4
  br label %39

39:                                               ; preds = %36, %17, %13
  call void @llvm.lifetime.end.p0(i64 8, ptr %9) #4
  call void @llvm.lifetime.end.p0(i64 8, ptr %8) #4
  %40 = load i32, ptr %4, align 4
  ret i32 %40
}

; Function Attrs: nounwind uwtable
define internal i32 @asn1_get_int64(ptr noundef %0, ptr noundef %1, i64 noundef %2, i32 noundef %3) #0 {
  %5 = alloca i32, align 4
  %6 = alloca ptr, align 8
  %7 = alloca ptr, align 8
  %8 = alloca i64, align 8
  %9 = alloca i32, align 4
  %10 = alloca i64, align 8
  %11 = alloca i32, align 4
  store ptr %0, ptr %6, align 8, !tbaa !28
  store ptr %1, ptr %7, align 8, !tbaa !18
  store i64 %2, ptr %8, align 8, !tbaa !19
  store i32 %3, ptr %9, align 4, !tbaa !13
  call void @llvm.lifetime.start.p0(i64 8, ptr %10) #4
  %12 = load ptr, ptr %7, align 8, !tbaa !18
  %13 = load i64, ptr %8, align 8, !tbaa !19
  %14 = call i32 @asn1_get_uint64(ptr noundef %10, ptr noundef %12, i64 noundef %13)
  %15 = icmp eq i32 %14, 0
  br i1 %15, label %16, label %17

16:                                               ; preds = %4
  store i32 0, ptr %5, align 4
  store i32 1, ptr %11, align 4
  br label %46

17:                                               ; preds = %4
  %18 = load i32, ptr %9, align 4, !tbaa !13
  %19 = icmp ne i32 %18, 0
  br i1 %19, label %20, label %37

20:                                               ; preds = %17
  %21 = load i64, ptr %10, align 8, !tbaa !19
  %22 = icmp ule i64 %21, 9223372036854775807
  br i1 %22, label %23, label %27

23:                                               ; preds = %20
  %24 = load i64, ptr %10, align 8, !tbaa !19
  %25 = sub nsw i64 0, %24
  %26 = load ptr, ptr %6, align 8, !tbaa !28
  store i64 %25, ptr %26, align 8, !tbaa !19
  br label %36

27:                                               ; preds = %20
  %28 = load i64, ptr %10, align 8, !tbaa !19
  %29 = icmp eq i64 %28, -9223372036854775808
  br i1 %29, label %30, label %34

30:                                               ; preds = %27
  %31 = load i64, ptr %10, align 8, !tbaa !19
  %32 = sub i64 0, %31
  %33 = load ptr, ptr %6, align 8, !tbaa !28
  store i64 %32, ptr %33, align 8, !tbaa !19
  br label %35

34:                                               ; preds = %27
  call void @ERR_new()
  call void @ERR_set_debug(ptr noundef @.str, i32 noundef 275, ptr noundef @__func__.asn1_get_int64)
  call void (i32, i32, ptr, ...) @ERR_set_error(i32 noundef 13, i32 noundef 224, ptr noundef null)
  store i32 0, ptr %5, align 4
  store i32 1, ptr %11, align 4
  br label %46

35:                                               ; preds = %30
  br label %36

36:                                               ; preds = %35, %23
  br label %45

37:                                               ; preds = %17
  %38 = load i64, ptr %10, align 8, !tbaa !19
  %39 = icmp ule i64 %38, 9223372036854775807
  br i1 %39, label %40, label %43

40:                                               ; preds = %37
  %41 = load i64, ptr %10, align 8, !tbaa !19
  %42 = load ptr, ptr %6, align 8, !tbaa !28
  store i64 %41, ptr %42, align 8, !tbaa !19
  br label %44

43:                                               ; preds = %37
  call void @ERR_new()
  call void @ERR_set_debug(ptr noundef @.str, i32 noundef 282, ptr noundef @__func__.asn1_get_int64)
  call void (i32, i32, ptr, ...) @ERR_set_error(i32 noundef 13, i32 noundef 223, ptr noundef null)
  store i32 0, ptr %5, align 4
  store i32 1, ptr %11, align 4
  br label %46

44:                                               ; preds = %40
  br label %45

45:                                               ; preds = %44, %36
  store i32 1, ptr %5, align 4
  store i32 1, ptr %11, align 4
  br label %46

46:                                               ; preds = %45, %43, %34, %16
  call void @llvm.lifetime.end.p0(i64 8, ptr %10) #4
  %47 = load i32, ptr %5, align 4
  ret i32 %47
}

; Function Attrs: nounwind uwtable
define internal i32 @asn1_string_get_int64(ptr noundef %0, ptr noundef %1, i32 noundef %2) #0 {
  %4 = alloca i32, align 4
  %5 = alloca ptr, align 8
  %6 = alloca ptr, align 8
  %7 = alloca i32, align 4
  store ptr %0, ptr %5, align 8, !tbaa !28
  store ptr %1, ptr %6, align 8, !tbaa !3
  store i32 %2, ptr %7, align 4, !tbaa !13
  %8 = load ptr, ptr %6, align 8, !tbaa !3
  %9 = icmp eq ptr %8, null
  br i1 %9, label %10, label %11

10:                                               ; preds = %3
  call void @ERR_new()
  call void @ERR_set_debug(ptr noundef @.str, i32 noundef 335, ptr noundef @__func__.asn1_string_get_int64)
  call void (i32, i32, ptr, ...) @ERR_set_error(i32 noundef 13, i32 noundef 786690, ptr noundef null)
  store i32 0, ptr %4, align 4
  br label %33

11:                                               ; preds = %3
  %12 = load ptr, ptr %6, align 8, !tbaa !3
  %13 = getelementptr inbounds nuw %struct.asn1_string_st, ptr %12, i32 0, i32 1
  %14 = load i32, ptr %13, align 4, !tbaa !8
  %15 = and i32 %14, -257
  %16 = load i32, ptr %7, align 4, !tbaa !13
  %17 = icmp ne i32 %15, %16
  br i1 %17, label %18, label %19

18:                                               ; preds = %11
  call void @ERR_new()
  call void @ERR_set_debug(ptr noundef @.str, i32 noundef 339, ptr noundef @__func__.asn1_string_get_int64)
  call void (i32, i32, ptr, ...) @ERR_set_error(i32 noundef 13, i32 noundef 225, ptr noundef null)
  store i32 0, ptr %4, align 4
  br label %33

19:                                               ; preds = %11
  %20 = load ptr, ptr %5, align 8, !tbaa !28
  %21 = load ptr, ptr %6, align 8, !tbaa !3
  %22 = getelementptr inbounds nuw %struct.asn1_string_st, ptr %21, i32 0, i32 2
  %23 = load ptr, ptr %22, align 8, !tbaa !16
  %24 = load ptr, ptr %6, align 8, !tbaa !3
  %25 = getelementptr inbounds nuw %struct.asn1_string_st, ptr %24, i32 0, i32 0
  %26 = load i32, ptr %25, align 8, !tbaa !17
  %27 = sext i32 %26 to i64
  %28 = load ptr, ptr %6, align 8, !tbaa !3
  %29 = getelementptr inbounds nuw %struct.asn1_string_st, ptr %28, i32 0, i32 1
  %30 = load i32, ptr %29, align 4, !tbaa !8
  %31 = and i32 %30, 256
  %32 = call i32 @asn1_get_int64(ptr noundef %20, ptr noundef %23, i64 noundef %27, i32 noundef %31)
  store i32 %32, ptr %4, align 4
  br label %33

33:                                               ; preds = %19, %18, %10
  %34 = load i32, ptr %4, align 4
  ret i32 %34
}