; Function Attrs: nounwind uwtable
define internal fastcc range(i32 0, 2) i32 @asn1_string_get_int64(ptr noundef writeonly captures(none) %0, ptr noundef readonly captures(address_is_null) %1, i32 noundef range(i32 2, 11) %2) unnamed_addr #0 {
  %4 = icmp eq ptr %1, null
  br i1 %4, label %5, label %6

5:                                                ; preds = %3
  tail call void @ERR_new() #6
  tail call void @ERR_set_debug(ptr noundef nonnull @.str, i32 noundef 335, ptr noundef nonnull @__func__.asn1_string_get_int64) #6
  tail call void (i32, i32, ptr, ...) @ERR_set_error(i32 noundef 13, i32 noundef 786690, ptr noundef null) #6
  br label %asn1_get_int64.exit

6:                                                ; preds = %3
  %7 = getelementptr inbounds nuw i8, ptr %1, i64 4
  %8 = load i32, ptr %7, align 4, !tbaa !3
  %9 = and i32 %8, -257
  %.not = icmp eq i32 %9, %2
  br i1 %.not, label %11, label %10

10:                                               ; preds = %6
  tail call void @ERR_new() #6
  tail call void @ERR_set_debug(ptr noundef nonnull @.str, i32 noundef 339, ptr noundef nonnull @__func__.asn1_string_get_int64) #6
  tail call void (i32, i32, ptr, ...) @ERR_set_error(i32 noundef 13, i32 noundef 225, ptr noundef null) #6
  br label %asn1_get_int64.exit

11:                                               ; preds = %6
  %12 = getelementptr inbounds nuw i8, ptr %1, i64 8
  %13 = load ptr, ptr %12, align 8, !tbaa !11
  %14 = load i32, ptr %1, align 8, !tbaa !12
  %15 = sext i32 %14 to i64
  %16 = and i32 %8, 256
  %17 = icmp ugt i32 %14, 8
  br i1 %17, label %18, label %19

18:                                               ; preds = %11
  tail call void @ERR_new() #6
  tail call void @ERR_set_debug(ptr noundef nonnull @.str, i32 noundef 219, ptr noundef nonnull @__func__.asn1_get_uint64) #6
  tail call void (i32, i32, ptr, ...) @ERR_set_error(i32 noundef 13, i32 noundef 223, ptr noundef null) #6
  br label %asn1_get_int64.exit

19:                                               ; preds = %11
  %20 = icmp eq ptr %13, null
  br i1 %20, label %asn1_get_int64.exit, label %.preheader.i.i

.preheader.i.i:                                   ; preds = %19
  %.not.i.i = icmp eq i32 %14, 0
  br i1 %.not.i.i, label %asn1_get_uint64.exit.thread12.i, label %.lr.ph.i.i

.lr.ph.i.i:                                       ; preds = %.preheader.i.i, %.lr.ph.i.i
  %.016.i.i = phi i64 [ %25, %.lr.ph.i.i ], [ 0, %.preheader.i.i ]
  %.01115.i.i = phi i64 [ %26, %.lr.ph.i.i ], [ 0, %.preheader.i.i ]
  %21 = shl i64 %.016.i.i, 8
  %22 = getelementptr inbounds nuw i8, ptr %13, i64 %.01115.i.i
  %23 = load i8, ptr %22, align 1, !tbaa !13
  %24 = zext i8 %23 to i64
  %25 = or disjoint i64 %21, %24
  %26 = add nuw nsw i64 %.01115.i.i, 1
  %exitcond.not.i.i = icmp eq i64 %26, %15
  br i1 %exitcond.not.i.i, label %asn1_get_uint64.exit.i, label %.lr.ph.i.i, !llvm.loop !23

asn1_get_uint64.exit.i:                           ; preds = %.lr.ph.i.i
  %.not.i = icmp eq i32 %16, 0
  %27 = icmp sgt i64 %21, -1
  br i1 %.not.i, label %34, label %28

asn1_get_uint64.exit.thread12.i:                  ; preds = %.preheader.i.i
  %.not15.i = icmp eq i32 %16, 0
  br i1 %.not15.i, label %.thread20.i, label %.thread.i

28:                                               ; preds = %asn1_get_uint64.exit.i
  br i1 %27, label %.thread.i, label %30

.thread.i:                                        ; preds = %28, %asn1_get_uint64.exit.thread12.i
  %.091719.i = phi i64 [ %25, %28 ], [ 0, %asn1_get_uint64.exit.thread12.i ]
  %29 = sub nsw i64 0, %.091719.i
  store i64 %29, ptr %0, align 8, !tbaa !22
  br label %asn1_get_int64.exit

30:                                               ; preds = %28
  %31 = icmp eq i64 %25, -9223372036854775808
  br i1 %31, label %32, label %33

32:                                               ; preds = %30
  store i64 -9223372036854775808, ptr %0, align 8, !tbaa !22
  br label %asn1_get_int64.exit

33:                                               ; preds = %30
  tail call void @ERR_new() #6
  tail call void @ERR_set_debug(ptr noundef nonnull @.str, i32 noundef 275, ptr noundef nonnull @__func__.asn1_get_int64) #6
  tail call void (i32, i32, ptr, ...) @ERR_set_error(i32 noundef 13, i32 noundef 224, ptr noundef null) #6
  br label %asn1_get_int64.exit

34:                                               ; preds = %asn1_get_uint64.exit.i
  br i1 %27, label %.thread20.i, label %35

.thread20.i:                                      ; preds = %34, %asn1_get_uint64.exit.thread12.i
  %.091622.i = phi i64 [ %25, %34 ], [ 0, %asn1_get_uint64.exit.thread12.i ]
  store i64 %.091622.i, ptr %0, align 8, !tbaa !22
  br label %asn1_get_int64.exit

35:                                               ; preds = %34
  tail call void @ERR_new() #6
  tail call void @ERR_set_debug(ptr noundef nonnull @.str, i32 noundef 282, ptr noundef nonnull @__func__.asn1_get_int64) #6
  tail call void (i32, i32, ptr, ...) @ERR_set_error(i32 noundef 13, i32 noundef 223, ptr noundef null) #6
  br label %asn1_get_int64.exit

asn1_get_int64.exit:                              ; preds = %35, %.thread20.i, %33, %32, %.thread.i, %19, %18, %10, %5
  %.0 = phi i32 [ 0, %5 ], [ 0, %10 ], [ 0, %33 ], [ 0, %35 ], [ 1, %.thread.i ], [ 1, %32 ], [ 1, %.thread20.i ], [ 0, %18 ], [ 0, %19 ]
  ret i32 %.0
}